target datalayout = "e-m:e-p270:32:32-p271:32:32-p272:64:64-i64:64-i128:128-f80:128-n8:16:32:64-S128"
target triple = "x86_64-unknown-linux-gnu"

%"class.arrow::NestedType" = type { %"class.arrow::DataType" }
%"class.arrow::DataType" = type { %"class.arrow::detail::Fingerprintable", %"class.std::enable_shared_from_this", i32, %"class.std::vector.16" }
%"class.arrow::detail::Fingerprintable" = type { ptr, %"struct.std::atomic", %"struct.std::atomic" }
%"struct.std::atomic" = type { %"struct.std::__atomic_base" }
%"struct.std::__atomic_base" = type { ptr }
%"class.std::enable_shared_from_this" = type { %"class.std::weak_ptr" }
%"class.std::weak_ptr" = type { %"class.std::__weak_ptr" }
%"class.std::__weak_ptr" = type { ptr, %"class.std::__weak_count" }
%"class.std::__weak_count" = type { ptr }
%"class.std::vector.16" = type { %"struct.std::_Vector_base.17" }
%"struct.std::_Vector_base.17" = type { %"struct.std::_Vector_base<std::shared_ptr<arrow::Field>, std::allocator<std::shared_ptr<arrow::Field>>>::_Vector_impl" }
%"struct.std::_Vector_base<std::shared_ptr<arrow::Field>, std::allocator<std::shared_ptr<arrow::Field>>>::_Vector_impl" = type { %"struct.std::_Vector_base<std::shared_ptr<arrow::Field>, std::allocator<std::shared_ptr<arrow::Field>>>::_Vector_impl_data" }
%"struct.std::_Vector_base<std::shared_ptr<arrow::Field>, std::allocator<std::shared_ptr<arrow::Field>>>::_Vector_impl_data" = type { ptr, ptr, ptr }
%"class.arrow::Status" = type { ptr }
%"struct.arrow::(anonymous namespace)::SchemaExporter" = type { %"struct.arrow::(anonymous namespace)::ExportedSchemaPrivateData", i64, %"class.std::vector", %"class.std::unique_ptr", %"class.std::vector.9" }
%"struct.arrow::(anonymous namespace)::ExportedSchemaPrivateData" = type { %"class.std::__cxx11::basic_string", %"class.std::__cxx11::basic_string", %"class.std::__cxx11::basic_string", %struct.ArrowSchema, %"class.arrow::internal::StaticVectorImpl", %"class.arrow::internal::StaticVectorImpl.0" }
%"class.std::__cxx11::basic_string" = type { %"struct.std::__cxx11::basic_string<char>::_Alloc_hider", i64, %union.anon }
%"struct.std::__cxx11::basic_string<char>::_Alloc_hider" = type { ptr }
%union.anon = type { i64, [8 x i8] }
%struct.ArrowSchema = type { ptr, ptr, ptr, i64, i64, ptr, ptr, ptr, ptr }
%"class.arrow::internal::StaticVectorImpl" = type { %"struct.arrow::internal::SmallVectorStorage" }
%"struct.arrow::internal::SmallVectorStorage" = type { [1 x %"class.arrow::internal::AlignedStorage"], i64, ptr, i64 }
%"class.arrow::internal::AlignedStorage" = type { %"union.std::aligned_storage<72, 8>::type" }
%"union.std::aligned_storage<72, 8>::type" = type { [72 x i8] }
%"class.arrow::internal::StaticVectorImpl.0" = type { %"struct.arrow::internal::SmallVectorStorage.1" }
%"struct.arrow::internal::SmallVectorStorage.1" = type { [4 x %"class.arrow::internal::AlignedStorage.2"], i64, ptr, i64 }
%"class.arrow::internal::AlignedStorage.2" = type { %"union.std::aligned_storage<8, 8>::type" }
%"union.std::aligned_storage<8, 8>::type" = type { [8 x i8] }
%"class.std::vector" = type { %"struct.std::_Vector_base" }
%"struct.std::_Vector_base" = type { %"struct.std::_Vector_base<std::pair<std::__cxx11::basic_string<char>, std::__cxx11::basic_string<char>>, std::allocator<std::pair<std::__cxx11::basic_string<char>, std::__cxx11::basic_string<char>>>>::_Vector_impl" }
%"struct.std::_Vector_base<std::pair<std::__cxx11::basic_string<char>, std::__cxx11::basic_string<char>>, std::allocator<std::pair<std::__cxx11::basic_string<char>, std::__cxx11::basic_string<char>>>>::_Vector_impl" = type { %"struct.std::_Vector_base<std::pair<std::__cxx11::basic_string<char>, std::__cxx11::basic_string<char>>, std::allocator<std::pair<std::__cxx11::basic_string<char>, std::__cxx11::basic_string<char>>>>::_Vector_impl_data" }
%"struct.std::_Vector_base<std::pair<std::__cxx11::basic_string<char>, std::__cxx11::basic_string<char>>, std::allocator<std::pair<std::__cxx11::basic_string<char>, std::__cxx11::basic_string<char>>>>::_Vector_impl_data" = type { ptr, ptr, ptr }
%"class.std::unique_ptr" = type { %"struct.std::__uniq_ptr_data" }
%"struct.std::__uniq_ptr_data" = type { %"class.std::__uniq_ptr_impl" }
%"class.std::__uniq_ptr_impl" = type { %"class.std::tuple" }
%"class.std::tuple" = type { %"struct.std::_Tuple_impl" }
%"struct.std::_Tuple_impl" = type { %"struct.std::_Head_base.8" }
%"struct.std::_Head_base.8" = type { ptr }
%"class.std::vector.9" = type { %"struct.std::_Vector_base.10" }
%"struct.std::_Vector_base.10" = type { %"struct.std::_Vector_base<arrow::(anonymous namespace)::SchemaExporter, std::allocator<arrow::(anonymous namespace)::SchemaExporter>>::_Vector_impl" }
%"struct.std::_Vector_base<arrow::(anonymous namespace)::SchemaExporter, std::allocator<arrow::(anonymous namespace)::SchemaExporter>>::_Vector_impl" = type { %"struct.std::_Vector_base<arrow::(anonymous namespace)::SchemaExporter, std::allocator<arrow::(anonymous namespace)::SchemaExporter>>::_Vector_impl_data" }
%"struct.std::_Vector_base<arrow::(anonymous namespace)::SchemaExporter, std::allocator<arrow::(anonymous namespace)::SchemaExporter>>::_Vector_impl_data" = type { ptr, ptr, ptr }
%"class.__gnu_cxx::__normal_iterator.219" = type { ptr }
%"class.arrow::UnionType" = type { %"class.arrow::NestedType", %"class.std::vector.201", %"class.std::vector.206" }
%"class.std::vector.201" = type { %"struct.std::_Vector_base.202" }
%"struct.std::_Vector_base.202" = type { %"struct.std::_Vector_base<signed char, std::allocator<signed char>>::_Vector_impl" }
%"struct.std::_Vector_base<signed char, std::allocator<signed char>>::_Vector_impl" = type { %"struct.std::_Vector_base<signed char, std::allocator<signed char>>::_Vector_impl_data" }
%"struct.std::_Vector_base<signed char, std::allocator<signed char>>::_Vector_impl_data" = type { ptr, ptr, ptr }
%"class.std::vector.206" = type { %"struct.std::_Vector_base.207" }
%"struct.std::_Vector_base.207" = type { %"struct.std::_Vector_base<int, std::allocator<int>>::_Vector_impl" }
%"struct.std::_Vector_base<int, std::allocator<int>>::_Vector_impl" = type { %"struct.std::_Vector_base<int, std::allocator<int>>::_Vector_impl_data" }
%"struct.std::_Vector_base<int, std::allocator<int>>::_Vector_impl_data" = type { ptr, ptr, ptr }

@.str.47 = private unnamed_addr constant [3 x i8] c"d:\00", align 1
@.str.48 = private unnamed_addr constant [2 x i8] c",\00", align 1
@.str.56 = private unnamed_addr constant [3 x i8] c"+u\00", align 1
@.str.57 = private unnamed_addr constant [3 x i8] c"s:\00", align 1

; Function Attrs: mustprogress nounwind uwtable
define linkonce_odr void @_ZN5arrow6StatusC2Ev(ptr noundef nonnull align 8 dereferenceable(8) %this) unnamed_addr #1 comdat align 2 {
entry:
  %this.addr = alloca ptr, align 8
  store ptr %this, ptr %this.addr, align 8
  %this1 = load ptr, ptr %this.addr, align 8
  %state_ = getelementptr inbounds %"class.arrow::Status", ptr %this1, i32 0, i32 0
  store ptr null, ptr %state_, align 8
  ret void
}

; Function Attrs: mustprogress nounwind uwtable
define linkonce_odr noundef nonnull align 8 dereferenceable(8) ptr @_ZNK9__gnu_cxx17__normal_iteratorIPKaSt6vectorIaSaIaEEE4baseEv(ptr noundef nonnull align 8 dereferenceable(8) %this) #1 comdat align 2 {
entry:
  %this.addr = alloca ptr, align 8
  store ptr %this, ptr %this.addr, align 8
  %this1 = load ptr, ptr %this.addr, align 8
  %_M_current = getelementptr inbounds %"class.__gnu_cxx::__normal_iterator.219", ptr %this1, i32 0, i32 0
  ret ptr %_M_current
}

; Function Attrs: mustprogress nounwind uwtable
define linkonce_odr void @_ZN9__gnu_cxx17__normal_iteratorIPKaSt6vectorIaSaIaEEEC2ERKS2_(ptr noundef nonnull align 8 dereferenceable(8) %this, ptr noundef nonnull align 8 dereferenceable(8) %__i) unnamed_addr #1 comdat align 2 {
entry:
  %this.addr = alloca ptr, align 8
  %__i.addr = alloca ptr, align 8
  store ptr %this, ptr %this.addr, align 8
  store ptr %__i, ptr %__i.addr, align 8
  %this1 = load ptr, ptr %this.addr, align 8
  %_M_current = getelementptr inbounds %"class.__gnu_cxx::__normal_iterator.219", ptr %this1, i32 0, i32 0
  %0 = load ptr, ptr %__i.addr, align 8
  %1 = load ptr, ptr %0, align 8
  store ptr %1, ptr %_M_current, align 8
  ret void
}

; Function Attrs: mustprogress nounwind uwtable
define linkonce_odr void @_ZN5arrow6Status2OKEv(ptr noalias sret(%"class.arrow::Status") align 8 %agg.result) #1 comdat align 2 {
entry:
  %result.ptr = alloca ptr, align 8
  store ptr %agg.result, ptr %result.ptr, align 8
  call void @_ZN5arrow6StatusC2Ev(ptr noundef nonnull align 8 dereferenceable(8) %agg.result) #12
  ret void
}

; Function Attrs: mustprogress nounwind uwtable
define linkonce_odr noundef nonnull align 8 dereferenceable(8) ptr @_ZN9__gnu_cxx17__normal_iteratorIPKaSt6vectorIaSaIaEEEppEv(ptr noundef nonnull align 8 dereferenceable(8) %this) #1 comdat align 2 {
entry:
  %this.addr = alloca ptr, align 8
  store ptr %this, ptr %this.addr, align 8
  %this1 = load ptr, ptr %this.addr, align 8
  %_M_current = getelementptr inbounds %"class.__gnu_cxx::__normal_iterator.219", ptr %this1, i32 0, i32 0
  %0 = load ptr, ptr %_M_current, align 8
  %incdec.ptr = getelementptr inbounds i8, ptr %0, i32 1
  store ptr %incdec.ptr, ptr %_M_current, align 8
  ret ptr %this1
}

; Function Attrs: mustprogress nounwind uwtable
define linkonce_odr noundef nonnull align 1 dereferenceable(1) ptr @_ZNK9__gnu_cxx17__normal_iteratorIPKaSt6vectorIaSaIaEEEdeEv(ptr noundef nonnull align 8 dereferenceable(8) %this) #1 comdat align 2 {
entry:
  %this.addr = alloca ptr, align 8
  store ptr %this, ptr %this.addr, align 8
  %this1 = load ptr, ptr %this.addr, align 8
  %_M_current = getelementptr inbounds %"class.__gnu_cxx::__normal_iterator.219", ptr %this1, i32 0, i32 0
  %0 = load ptr, ptr %_M_current, align 8
  ret ptr %0
}

; Function Attrs: mustprogress nounwind uwtable
define linkonce_odr noundef zeroext i1 @_ZN9__gnu_cxxneIPKaSt6vectorIaSaIaEEEEbRKNS_17__normal_iteratorIT_T0_EESB_(ptr noundef nonnull align 8 dereferenceable(8) %__lhs, ptr noundef nonnull align 8 dereferenceable(8) %__rhs) #1 comdat {
entry:
  %__lhs.addr = alloca ptr, align 8
  %__rhs.addr = alloca ptr, align 8
  store ptr %__lhs, ptr %__lhs.addr, align 8
  store ptr %__rhs, ptr %__rhs.addr, align 8
  %0 = load ptr, ptr %__lhs.addr, align 8
  %call = call noundef nonnull align 8 dereferenceable(8) ptr @_ZNK9__gnu_cxx17__normal_iteratorIPKaSt6vectorIaSaIaEEE4baseEv(ptr noundef nonnull align 8 dereferenceable(8) %0) #12
  %1 = load ptr, ptr %call, align 8
  %2 = load ptr, ptr %__rhs.addr, align 8
  %call1 = call noundef nonnull align 8 dereferenceable(8) ptr @_ZNK9__gnu_cxx17__normal_iteratorIPKaSt6vectorIaSaIaEEE4baseEv(ptr noundef nonnull align 8 dereferenceable(8) %2) #12
  %3 = load ptr, ptr %call1, align 8
  %cmp = icmp ne ptr %1, %3
  ret i1 %cmp
}

; Function Attrs: mustprogress nounwind uwtable
define linkonce_odr ptr @_ZNKSt6vectorIaSaIaEE3endEv(ptr noundef nonnull align 8 dereferenceable(24) %this) #1 comdat align 2 {
entry:
  %retval = alloca %"class.__gnu_cxx::__normal_iterator.219", align 8
  %this.addr = alloca ptr, align 8
  store ptr %this, ptr %this.addr, align 8
  %this1 = load ptr, ptr %this.addr, align 8
  %_M_impl = getelementptr inbounds %"struct.std::_Vector_base.202", ptr %this1, i32 0, i32 0
  %_M_finish = getelementptr inbounds %"struct.std::_Vector_base<signed char, std::allocator<signed char>>::_Vector_impl_data", ptr %_M_impl, i32 0, i32 1
  call void @_ZN9__gnu_cxx17__normal_iteratorIPKaSt6vectorIaSaIaEEEC2ERKS2_(ptr noundef nonnull align 8 dereferenceable(8) %retval, ptr noundef nonnull align 8 dereferenceable(8) %_M_finish) #12
  %coerce.dive = getelementptr inbounds %"class.__gnu_cxx::__normal_iterator.219", ptr %retval, i32 0, i32 0
  %0 = load ptr, ptr %coerce.dive, align 8
  ret ptr %0
}

; Function Attrs: mustprogress nounwind uwtable
define linkonce_odr ptr @_ZNKSt6vectorIaSaIaEE5beginEv(ptr noundef nonnull align 8 dereferenceable(24) %this) #1 comdat align 2 {
entry:
  %retval = alloca %"class.__gnu_cxx::__normal_iterator.219", align 8
  %this.addr = alloca ptr, align 8
  store ptr %this, ptr %this.addr, align 8
  %this1 = load ptr, ptr %this.addr, align 8
  %_M_impl = getelementptr inbounds %"struct.std::_Vector_base.202", ptr %this1, i32 0, i32 0
  %_M_start = getelementptr inbounds %"struct.std::_Vector_base<signed char, std::allocator<signed char>>::_Vector_impl_data", ptr %_M_impl, i32 0, i32 0
  call void @_ZN9__gnu_cxx17__normal_iteratorIPKaSt6vectorIaSaIaEEEC2ERKS2_(ptr noundef nonnull align 8 dereferenceable(8) %retval, ptr noundef nonnull align 8 dereferenceable(8) %_M_start) #12
  %coerce.dive = getelementptr inbounds %"class.__gnu_cxx::__normal_iterator.219", ptr %retval, i32 0, i32 0
  %0 = load ptr, ptr %coerce.dive, align 8
  ret ptr %0
}

; Function Attrs: mustprogress nounwind uwtable
define linkonce_odr noundef nonnull align 8 dereferenceable(24) ptr @_ZNK5arrow9UnionType10type_codesEv(ptr noundef nonnull align 8 dereferenceable(120) %this) #1 comdat align 2 {
entry:
  %this.addr = alloca ptr, align 8
  store ptr %this, ptr %this.addr, align 8
  %this1 = load ptr, ptr %this.addr, align 8
  %type_codes_ = getelementptr inbounds %"class.arrow::UnionType", ptr %this1, i32 0, i32 1
  ret ptr %type_codes_
}

; Function Attrs: mustprogress uwtable
define internal void @_ZN5arrow12_GLOBAL__N_114SchemaExporter5VisitERKNS_9UnionTypeE(ptr noalias sret(%"class.arrow::Status") align 8 %agg.result, ptr noundef nonnull align 8 dereferenceable(384) %this, ptr noundef nonnull align 8 dereferenceable(120) %type) #0 align 2 personality ptr @__gxx_personality_v0 {
entry:
  %result.ptr = alloca ptr, align 8
  %this.addr = alloca ptr, align 8
  %type.addr = alloca ptr, align 8
  %s = alloca ptr, align 8
  %first = alloca i8, align 1
  %__range2 = alloca ptr, align 8
  %__begin2 = alloca %"class.__gnu_cxx::__normal_iterator.219", align 8
  %__end2 = alloca %"class.__gnu_cxx::__normal_iterator.219", align 8
  %code = alloca i8, align 1
  %ref.tmp = alloca %"class.std::__cxx11::basic_string", align 8
  %exn.slot = alloca ptr, align 8
  %ehselector.slot = alloca i32, align 4
  store ptr %agg.result, ptr %result.ptr, align 8
  store ptr %this, ptr %this.addr, align 8
  store ptr %type, ptr %type.addr, align 8
  %this1 = load ptr, ptr %this.addr, align 8
  %export_ = getelementptr inbounds %"struct.arrow::(anonymous namespace)::SchemaExporter", ptr %this1, i32 0, i32 0
  %format_ = getelementptr inbounds %"struct.arrow::(anonymous namespace)::ExportedSchemaPrivateData", ptr %export_, i32 0, i32 0
  store ptr %format_, ptr %s, align 8
  %0 = load ptr, ptr %s, align 8
  %call = call noundef nonnull align 8 dereferenceable(32) ptr @_ZNSt7__cxx1112basic_stringIcSt11char_traitsIcESaIcEEaSEPKc(ptr noundef nonnull align 8 dereferenceable(32) %0, ptr noundef @.str.56)
  %1 = load ptr, ptr %type.addr, align 8
  %call2 = call noundef i32 @_ZNK5arrow9UnionType4modeEv(ptr noundef nonnull align 8 dereferenceable(120) %1)
  %cmp = icmp eq i32 %call2, 1
  br i1 %cmp, label %if.then, label %if.else

if.then:                                          ; preds = %entry
  %2 = load ptr, ptr %s, align 8
  %call3 = call noundef nonnull align 8 dereferenceable(32) ptr @_ZNSt7__cxx1112basic_stringIcSt11char_traitsIcESaIcEEpLEPKc(ptr noundef nonnull align 8 dereferenceable(32) %2, ptr noundef @.str.47)
  br label %if.end

if.else:                                          ; preds = %entry
  br label %while.cond

while.cond:                                       ; preds = %while.body, %if.else
  br i1 false, label %while.body, label %while.end

while.body:                                       ; preds = %while.cond
  %3 = load ptr, ptr %type.addr, align 8
  %call4 = call noundef i32 @_ZNK5arrow9UnionType4modeEv(ptr noundef nonnull align 8 dereferenceable(120) %3)
  br label %while.cond, !llvm.loop !26

while.end:                                        ; preds = %while.cond
  br label %while.cond5

while.cond5:                                      ; preds = %while.body6, %while.end
  br i1 false, label %while.body6, label %while.end7

while.body6:                                      ; preds = %while.cond5
  br label %while.cond5, !llvm.loop !27

while.end7:                                       ; preds = %while.cond5
  br label %while.cond8

while.cond8:                                      ; preds = %while.body9, %while.end7
  br i1 false, label %while.body9, label %while.end10

while.body9:                                      ; preds = %while.cond8
  br label %while.cond8, !llvm.loop !28

while.end10:                                      ; preds = %while.cond8
  %4 = load ptr, ptr %s, align 8
  %call11 = call noundef nonnull align 8 dereferenceable(32) ptr @_ZNSt7__cxx1112basic_stringIcSt11char_traitsIcESaIcEEpLEPKc(ptr noundef nonnull align 8 dereferenceable(32) %4, ptr noundef @.str.57)
  br label %if.end

if.end:                                           ; preds = %while.end10, %if.then
  store i8 1, ptr %first, align 1
  %5 = load ptr, ptr %type.addr, align 8
  %call12 = call noundef nonnull align 8 dereferenceable(24) ptr @_ZNK5arrow9UnionType10type_codesEv(ptr noundef nonnull align 8 dereferenceable(120) %5)
  store ptr %call12, ptr %__range2, align 8
  %6 = load ptr, ptr %__range2, align 8
  %call13 = call ptr @_ZNKSt6vectorIaSaIaEE5beginEv(ptr noundef nonnull align 8 dereferenceable(24) %6) #12
  %coerce.dive = getelementptr inbounds %"class.__gnu_cxx::__normal_iterator.219", ptr %__begin2, i32 0, i32 0
  store ptr %call13, ptr %coerce.dive, align 8
  %7 = load ptr, ptr %__range2, align 8
  %call14 = call ptr @_ZNKSt6vectorIaSaIaEE3endEv(ptr noundef nonnull align 8 dereferenceable(24) %7) #12
  %coerce.dive15 = getelementptr inbounds %"class.__gnu_cxx::__normal_iterator.219", ptr %__end2, i32 0, i32 0
  store ptr %call14, ptr %coerce.dive15, align 8
  br label %for.cond

for.cond:                                         ; preds = %for.inc, %if.end
  %call16 = call noundef zeroext i1 @_ZN9__gnu_cxxneIPKaSt6vectorIaSaIaEEEEbRKNS_17__normal_iteratorIT_T0_EESB_(ptr noundef nonnull align 8 dereferenceable(8) %__begin2, ptr noundef nonnull align 8 dereferenceable(8) %__end2) #12
  br i1 %call16, label %for.body, label %for.end

for.body:                                         ; preds = %for.cond
  %call17 = call noundef nonnull align 1 dereferenceable(1) ptr @_ZNK9__gnu_cxx17__normal_iteratorIPKaSt6vectorIaSaIaEEEdeEv(ptr noundef nonnull align 8 dereferenceable(8) %__begin2) #12
  %8 = load i8, ptr %call17, align 1
  store i8 %8, ptr %code, align 1
  %9 = load i8, ptr %first, align 1
  %tobool = trunc i8 %9 to i1
  br i1 %tobool, label %if.end20, label %if.then18

if.then18:                                        ; preds = %for.body
  %10 = load ptr, ptr %s, align 8
  %call19 = call noundef nonnull align 8 dereferenceable(32) ptr @_ZNSt7__cxx1112basic_stringIcSt11char_traitsIcESaIcEEpLEPKc(ptr noundef nonnull align 8 dereferenceable(32) %10, ptr noundef @.str.48)
  br label %if.end20

if.end20:                                         ; preds = %if.then18, %for.body
  %11 = load i8, ptr %code, align 1
  call void @_ZN5arrow8internal7ToCharsIaJEEENSt7__cxx1112basic_stringIcSt11char_traitsIcESaIcEEET_DpOT0_(ptr sret(%"class.std::__cxx11::basic_string") align 8 %ref.tmp, i8 noundef signext %11)
  %12 = load ptr, ptr %s, align 8
  %call21 = invoke noundef nonnull align 8 dereferenceable(32) ptr @_ZNSt7__cxx1112basic_stringIcSt11char_traitsIcESaIcEEpLERKS4_(ptr noundef nonnull align 8 dereferenceable(32) %12, ptr noundef nonnull align 8 dereferenceable(32) %ref.tmp)
          to label %invoke.cont unwind label %lpad

invoke.cont:                                      ; preds = %if.end20
  call void @_ZNSt7__cxx1112basic_stringIcSt11char_traitsIcESaIcEED1Ev(ptr noundef nonnull align 8 dereferenceable(32) %ref.tmp) #12
  store i8 0, ptr %first, align 1
  br label %for.inc

for.inc:                                          ; preds = %invoke.cont
  %call22 = call noundef nonnull align 8 dereferenceable(8) ptr @_ZN9__gnu_cxx17__normal_iteratorIPKaSt6vectorIaSaIaEEEppEv(ptr noundef nonnull align 8 dereferenceable(8) %__begin2) #12
  br label %for.cond

lpad:                                             ; preds = %if.end20
  %13 = landingpad { ptr, i32 }
          cleanup
  %14 = extractvalue { ptr, i32 } %13, 0
  store ptr %14, ptr %exn.slot, align 8
  %15 = extractvalue { ptr, i32 } %13, 1
  store i32 %15, ptr %ehselector.slot, align 4
  call void @_ZNSt7__cxx1112basic_stringIcSt11char_traitsIcESaIcEED1Ev(ptr noundef nonnull align 8 dereferenceable(32) %ref.tmp) #12
  br label %eh.resume

for.end:                                          ; preds = %for.cond
  call void @_ZN5arrow6Status2OKEv(ptr sret(%"class.arrow::Status") align 8 %agg.result)
  ret void

eh.resume:                                        ; preds = %lpad
  %exn = load ptr, ptr %exn.slot, align 8
  %sel = load i32, ptr %ehselector.slot, align 4
  %lpad.val = insertvalue { ptr, i32 } poison, ptr %exn, 0
  %lpad.val23 = insertvalue { ptr, i32 } %lpad.val, i32 %sel, 1
  resume { ptr, i32 } %lpad.val23
}