; Function Attrs: mustprogress uwtable
define internal fastcc void @_ZN5arrow12_GLOBAL__N_114SchemaExporter5VisitERKNS_9UnionTypeE(ptr noalias nocapture writeonly align 8 %agg.result, ptr noundef nonnull align 8 dereferenceable(384) %this, ptr noundef nonnull align 8 dereferenceable(120) %type) unnamed_addr #0 align 2 personality ptr @__gxx_personality_v0 {
entry:
  %ref.tmp = alloca %"class.std::__cxx11::basic_string", align 8
  %call = tail call noundef nonnull align 8 dereferenceable(32) ptr @_ZNSt7__cxx1112basic_stringIcSt11char_traitsIcESaIcEEaSEPKc(ptr noundef nonnull align 8 dereferenceable(32) %this, ptr noundef nonnull @.str.56)
  %call2 = tail call noundef i32 @_ZNK5arrow9UnionType4modeEv(ptr noundef nonnull align 8 dereferenceable(120) %type)
  %cmp = icmp eq i32 %call2, 1
  %.str.47..str.57 = select i1 %cmp, ptr @.str.47, ptr @.str.57
  %call11 = tail call noundef nonnull align 8 dereferenceable(32) ptr @_ZNSt7__cxx1112basic_stringIcSt11char_traitsIcESaIcEEpLEPKc(ptr noundef nonnull align 8 dereferenceable(32) %this, ptr noundef nonnull %.str.47..str.57)
  %type_codes_.i = getelementptr inbounds i8, ptr %type, i64 72
  %0 = load ptr, ptr %type_codes_.i, align 8
  %_M_finish.i = getelementptr inbounds i8, ptr %type, i64 80
  %1 = load ptr, ptr %_M_finish.i, align 8
  %cmp.i.not9 = icmp eq ptr %0, %1
  br i1 %cmp.i.not9, label %for.end, label %for.body

for.body:                                         ; preds = %entry, %invoke.cont
  %first.011 = phi i1 [ false, %invoke.cont ], [ true, %entry ]
  %__begin2.sroa.0.010 = phi ptr [ %incdec.ptr.i, %invoke.cont ], [ %0, %entry ]
  %2 = load i8, ptr %__begin2.sroa.0.010, align 1
  br i1 %first.011, label %if.end20, label %if.then18

if.then18:                                        ; preds = %for.body
  %call19 = call noundef nonnull align 8 dereferenceable(32) ptr @_ZNSt7__cxx1112basic_stringIcSt11char_traitsIcESaIcEEpLEPKc(ptr noundef nonnull align 8 dereferenceable(32) %this, ptr noundef nonnull @.str.48)
  br label %if.end20

if.end20:                                         ; preds = %if.then18, %for.body
  call void @_ZN5arrow8internal7ToCharsIaJEEENSt7__cxx1112basic_stringIcSt11char_traitsIcESaIcEEET_DpOT0_(ptr nonnull sret(%"class.std::__cxx11::basic_string") align 8 %ref.tmp, i8 noundef signext %2)
  %call21 = invoke noundef nonnull align 8 dereferenceable(32) ptr @_ZNSt7__cxx1112basic_stringIcSt11char_traitsIcESaIcEEpLERKS4_(ptr noundef nonnull align 8 dereferenceable(32) %this, ptr noundef nonnull align 8 dereferenceable(32) %ref.tmp)
          to label %invoke.cont unwind label %lpad

invoke.cont:                                      ; preds = %if.end20
  call void @_ZNSt7__cxx1112basic_stringIcSt11char_traitsIcESaIcEED1Ev(ptr noundef nonnull align 8 dereferenceable(32) %ref.tmp) #24
  %incdec.ptr.i = getelementptr inbounds i8, ptr %__begin2.sroa.0.010, i64 1
  %cmp.i.not = icmp eq ptr %incdec.ptr.i, %1
  br i1 %cmp.i.not, label %for.end, label %for.body

lpad:                                             ; preds = %if.end20
  %3 = landingpad { ptr, i32 }
          cleanup
  call void @_ZNSt7__cxx1112basic_stringIcSt11char_traitsIcESaIcEED1Ev(ptr noundef nonnull align 8 dereferenceable(32) %ref.tmp) #24
  resume { ptr, i32 } %3

for.end:                                          ; preds = %invoke.cont, %entry
  store ptr null, ptr %agg.result, align 8, !alias.scope !779
  ret void
}